target datalayout = "e-m:e-p270:32:32-p271:32:32-p272:64:64-i64:64-i128:128-f80:128-n8:16:32:64-S128"
target triple = "x86_64-pc-linux-gnu"

%"class.llvm::MachineOperand" = type { i32, %union.anon, ptr, %"union.llvm::MachineOperand::ContentsUnion" }
%union.anon = type { i32 }
%"union.llvm::MachineOperand::ContentsUnion" = type { %"class.llvm::ArrayRef.70" }
%"class.llvm::ArrayRef.70" = type { ptr, i64 }
%"class.llvm::MachineInstr" = type <{ %"class.llvm::ilist_node_with_parent", ptr, ptr, ptr, [3 x i8], %"class.llvm::ArrayRecycler<llvm::MachineOperand>::Capacity", i32, %"class.llvm::PointerSumType", %"class.llvm::DebugLoc", i32, i16, [2 x i8] }>
%"class.llvm::ilist_node_with_parent" = type { %"class.llvm::ilist_node" }
%"class.llvm::ilist_node" = type { %"class.llvm::ilist_node_impl" }
%"class.llvm::ilist_node_impl" = type { %"class.llvm::ilist_node_base" }
%"class.llvm::ilist_node_base" = type { %"class.llvm::ilist_detail::node_base_prevnext" }
%"class.llvm::ilist_detail::node_base_prevnext" = type { %"class.llvm::PointerIntPair", ptr }
%"class.llvm::PointerIntPair" = type { %"struct.llvm::detail::PunnedPointer" }
%"struct.llvm::detail::PunnedPointer" = type { [8 x i8] }
%"class.llvm::ArrayRecycler<llvm::MachineOperand>::Capacity" = type { i8 }
%"class.llvm::PointerSumType" = type { %"union.llvm::PointerSumType<llvm::MachineInstr::ExtraInfoInlineKinds, llvm::PointerSumTypeMember<0, llvm::MachineMemOperand *>, llvm::PointerSumTypeMember<1, llvm::MCSymbol *>, llvm::PointerSumTypeMember<2, llvm::MCSymbol *>, llvm::PointerSumTypeMember<3, llvm::MachineInstr::ExtraInfo *>>::StorageT" }
%"union.llvm::PointerSumType<llvm::MachineInstr::ExtraInfoInlineKinds, llvm::PointerSumTypeMember<0, llvm::MachineMemOperand *>, llvm::PointerSumTypeMember<1, llvm::MCSymbol *>, llvm::PointerSumTypeMember<2, llvm::MCSymbol *>, llvm::PointerSumTypeMember<3, llvm::MachineInstr::ExtraInfo *>>::StorageT" = type { i64 }
%"class.llvm::DebugLoc" = type { %"class.llvm::TypedTrackingMDRef" }
%"class.llvm::TypedTrackingMDRef" = type { %"class.llvm::TrackingMDRef" }
%"class.llvm::TrackingMDRef" = type { ptr }
%"class.llvm::InlineAsm::Flag" = type { i32 }

; Function Attrs: mustprogress nounwind uwtable
define linkonce_odr hidden noundef i32 @_ZN4llvm17bitfields_details10CompressorIjLj13ELb1EE6unpackEj(i32 noundef %0) #0 comdat align 2 {
  %2 = alloca i32, align 4
  store i32 %0, ptr %2, align 4
  %3 = load i32, ptr %2, align 4
  ret i32 %3
}

; Function Attrs: mustprogress nounwind uwtable
define linkonce_odr hidden noundef i32 @_ZN4llvm17bitfields_details4ImplINS_8Bitfield7ElementIjLj3ELj13ELj4294967295EEEjE7extractEj(i32 noundef %0) #0 comdat align 2 {
  %2 = alloca i32, align 4
  %3 = alloca i32, align 4
  store i32 %0, ptr %2, align 4
  %4 = load i32, ptr %2, align 4
  %5 = and i32 %4, 65528
  %6 = lshr i32 %5, 3
  store i32 %6, ptr %3, align 4
  %7 = load i32, ptr %3, align 4
  %8 = call noundef i32 @_ZN4llvm17bitfields_details10CompressorIjLj13ELb1EE6unpackEj(i32 noundef %7)
  ret i32 %8
}

; Function Attrs: mustprogress nounwind uwtable
define linkonce_odr hidden noundef i32 @_ZN4llvm8Bitfield3getINS0_7ElementIjLj3ELj13ELj4294967295EEEjEENT_4TypeET0_(i32 noundef %0) #0 comdat align 2 {
  %2 = alloca i32, align 4
  store i32 %0, ptr %2, align 4
  %3 = load i32, ptr %2, align 4
  %4 = call noundef i32 @_ZN4llvm17bitfields_details4ImplINS_8Bitfield7ElementIjLj3ELj13ELj4294967295EEEjE7extractEj(i32 noundef %3)
  ret i32 %4
}

; Function Attrs: mustprogress nounwind uwtable
define linkonce_odr hidden noundef i32 @_ZNK4llvm9InlineAsm4Flag22getNumOperandRegistersEv(ptr noundef nonnull align 4 dereferenceable(4) %0) #0 comdat align 2 {
  %2 = alloca ptr, align 8
  store ptr %0, ptr %2, align 8
  %3 = load ptr, ptr %2, align 8
  %4 = getelementptr inbounds nuw %"class.llvm::InlineAsm::Flag", ptr %3, i32 0, i32 0
  %5 = load i32, ptr %4, align 4
  %6 = call noundef i32 @_ZN4llvm8Bitfield3getINS0_7ElementIjLj3ELj13ELj4294967295EEEjEENT_4TypeET0_(i32 noundef %5)
  ret i32 %6
}

; Function Attrs: mustprogress nounwind uwtable
define linkonce_odr hidden void @_ZN4llvm9InlineAsm4FlagC2Ej(ptr noundef nonnull align 4 dereferenceable(4) %0, i32 noundef %1) unnamed_addr #0 comdat align 2 {
  %3 = alloca ptr, align 8
  %4 = alloca i32, align 4
  store ptr %0, ptr %3, align 8
  store i32 %1, ptr %4, align 4
  %5 = load ptr, ptr %3, align 8
  %6 = getelementptr inbounds nuw %"class.llvm::InlineAsm::Flag", ptr %5, i32 0, i32 0
  %7 = load i32, ptr %4, align 4
  store i32 %7, ptr %6, align 4
  ret void
}

; Function Attrs: mustprogress nounwind uwtable
define linkonce_odr hidden noundef i64 @_ZNK4llvm14MachineOperand6getImmEv(ptr noundef nonnull align 8 dereferenceable(32) %0) #0 comdat align 2 {
  %2 = alloca ptr, align 8
  store ptr %0, ptr %2, align 8
  %3 = load ptr, ptr %2, align 8
  %4 = getelementptr inbounds nuw %"class.llvm::MachineOperand", ptr %3, i32 0, i32 3
  %5 = load i64, ptr %4, align 8
  ret i64 %5
}

; Function Attrs: mustprogress nounwind uwtable
define linkonce_odr hidden noundef zeroext i1 @_ZNK4llvm14MachineOperand5isImmEv(ptr noundef nonnull align 8 dereferenceable(32) %0) #0 comdat align 2 {
  %2 = alloca ptr, align 8
  store ptr %0, ptr %2, align 8
  %3 = load ptr, ptr %2, align 8
  %4 = load i32, ptr %3, align 8
  %5 = and i32 %4, 255
  %6 = icmp eq i32 %5, 1
  ret i1 %6
}

; Function Attrs: mustprogress nounwind uwtable
define linkonce_odr hidden noundef nonnull align 8 dereferenceable(32) ptr @_ZNK4llvm12MachineInstr10getOperandEj(ptr noundef nonnull align 8 dereferenceable(70) %0, i32 noundef %1) #0 comdat align 2 {
  %3 = alloca ptr, align 8
  %4 = alloca i32, align 4
  store ptr %0, ptr %3, align 8
  store i32 %1, ptr %4, align 4
  %5 = load ptr, ptr %3, align 8
  %6 = getelementptr inbounds nuw %"class.llvm::MachineInstr", ptr %5, i32 0, i32 3
  %7 = load ptr, ptr %6, align 8
  %8 = load i32, ptr %4, align 4
  %9 = zext i32 %8 to i64
  %10 = getelementptr inbounds %"class.llvm::MachineOperand", ptr %7, i64 %9
  ret ptr %10
}

; Function Attrs: mustprogress nounwind uwtable
define linkonce_odr hidden noundef i32 @_ZNK4llvm12MachineInstr14getNumOperandsEv(ptr noundef nonnull align 8 dereferenceable(70) %0) #0 comdat align 2 {
  %2 = alloca ptr, align 8
  store ptr %0, ptr %2, align 8
  %3 = load ptr, ptr %2, align 8
  %4 = getelementptr inbounds nuw %"class.llvm::MachineInstr", ptr %3, i32 0, i32 4
  %5 = load i24, ptr %4, align 8
  %6 = zext i24 %5 to i32
  ret i32 %6
}

; Function Attrs: mustprogress nounwind uwtable
define dso_local noundef i32 @_ZNK4llvm12MachineInstr20findInlineAsmFlagIdxEjPj(ptr noundef nonnull align 8 dereferenceable(70) %0, i32 noundef %1, ptr noundef %2) #0 align 2 {
  %4 = alloca i32, align 4
  %5 = alloca ptr, align 8
  %6 = alloca i32, align 4
  %7 = alloca ptr, align 8
  %8 = alloca i32, align 4
  %9 = alloca i32, align 4
  %10 = alloca i32, align 4
  %11 = alloca i32, align 4
  %12 = alloca ptr, align 8
  %13 = alloca %"class.llvm::InlineAsm::Flag", align 4
  store ptr %0, ptr %5, align 8
  store i32 %1, ptr %6, align 4
  store ptr %2, ptr %7, align 8
  %14 = load ptr, ptr %5, align 8
  %15 = load i32, ptr %6, align 4
  %16 = icmp ult i32 %15, 2
  br i1 %16, label %17, label %18

17:                                               ; preds = %3
  store i32 -1, ptr %4, align 4
  br label %57

18:                                               ; preds = %3
  store i32 0, ptr %8, align 4
  store i32 2, ptr %10, align 4
  %19 = call noundef i32 @_ZNK4llvm12MachineInstr14getNumOperandsEv(ptr noundef nonnull align 8 dereferenceable(70) %14)
  store i32 %19, ptr %11, align 4
  br label %20

20:                                               ; preds = %52, %18
  %21 = load i32, ptr %10, align 4
  %22 = load i32, ptr %11, align 4
  %23 = icmp ult i32 %21, %22
  br i1 %23, label %24, label %56

24:                                               ; preds = %20
  %25 = load i32, ptr %10, align 4
  %26 = call noundef nonnull align 8 dereferenceable(32) ptr @_ZNK4llvm12MachineInstr10getOperandEj(ptr noundef nonnull align 8 dereferenceable(70) %14, i32 noundef %25)
  store ptr %26, ptr %12, align 8
  %27 = load ptr, ptr %12, align 8
  %28 = call noundef zeroext i1 @_ZNK4llvm14MachineOperand5isImmEv(ptr noundef nonnull align 8 dereferenceable(32) %27)
  br i1 %28, label %30, label %29

29:                                               ; preds = %24
  store i32 -1, ptr %4, align 4
  br label %57

30:                                               ; preds = %24
  %31 = load ptr, ptr %12, align 8
  %32 = call noundef i64 @_ZNK4llvm14MachineOperand6getImmEv(ptr noundef nonnull align 8 dereferenceable(32) %31)
  %33 = trunc i64 %32 to i32
  call void @_ZN4llvm9InlineAsm4FlagC2Ej(ptr noundef nonnull align 4 dereferenceable(4) %13, i32 noundef %33)
  %34 = call noundef i32 @_ZNK4llvm9InlineAsm4Flag22getNumOperandRegistersEv(ptr noundef nonnull align 4 dereferenceable(4) %13)
  %35 = add i32 1, %34
  store i32 %35, ptr %9, align 4
  %36 = load i32, ptr %10, align 4
  %37 = load i32, ptr %9, align 4
  %38 = add i32 %36, %37
  %39 = load i32, ptr %6, align 4
  %40 = icmp ugt i32 %38, %39
  br i1 %40, label %41, label %49

41:                                               ; preds = %30
  %42 = load ptr, ptr %7, align 8
  %43 = icmp ne ptr %42, null
  br i1 %43, label %44, label %47

44:                                               ; preds = %41
  %45 = load i32, ptr %8, align 4
  %46 = load ptr, ptr %7, align 8
  store i32 %45, ptr %46, align 4
  br label %47

47:                                               ; preds = %44, %41
  %48 = load i32, ptr %10, align 4
  store i32 %48, ptr %4, align 4
  br label %57

49:                                               ; preds = %30
  %50 = load i32, ptr %8, align 4
  %51 = add i32 %50, 1
  store i32 %51, ptr %8, align 4
  br label %52

52:                                               ; preds = %49
  %53 = load i32, ptr %9, align 4
  %54 = load i32, ptr %10, align 4
  %55 = add i32 %54, %53
  store i32 %55, ptr %10, align 4
  br label %20, !llvm.loop !13

56:                                               ; preds = %20
  store i32 -1, ptr %4, align 4
  br label %57

57:                                               ; preds = %56, %47, %29, %17
  %58 = load i32, ptr %4, align 4
  ret i32 %58
}