; Function Attrs: mustprogress nofree norecurse nosync nounwind memory(read, argmem: readwrite, inaccessiblemem: none) uwtable
define dso_local noundef i32 @_ZNK4llvm12MachineInstr20findInlineAsmFlagIdxEjPj(ptr nocapture noundef nonnull readonly align 8 dereferenceable(70) %0, i32 noundef %1, ptr noundef writeonly %2) local_unnamed_addr #8 align 2 {
  %4 = icmp ult i32 %1, 2
  br i1 %4, label %.loopexit, label %5

5:                                                ; preds = %3
  %6 = getelementptr inbounds nuw i8, ptr %0, i64 40
  %7 = load i24, ptr %6, align 8
  %8 = zext i24 %7 to i32
  %9 = icmp ugt i24 %7, 2
  br i1 %9, label %.lr.ph, label %.loopexit

.lr.ph:                                           ; preds = %5
  %10 = getelementptr inbounds nuw i8, ptr %0, i64 32
  %11 = load ptr, ptr %10, align 8
  br label %12

12:                                               ; preds = %.lr.ph, %29
  %.01725 = phi i32 [ 0, %.lr.ph ], [ %30, %29 ]
  %.01824 = phi i32 [ 2, %.lr.ph ], [ %25, %29 ]
  %13 = zext i32 %.01824 to i64
  %14 = getelementptr inbounds %"class.llvm::MachineOperand", ptr %11, i64 %13
  %15 = load i32, ptr %14, align 8
  %16 = and i32 %15, 255
  %17 = icmp eq i32 %16, 1
  br i1 %17, label %18, label %.loopexit

18:                                               ; preds = %12
  %19 = getelementptr inbounds nuw i8, ptr %14, i64 16
  %20 = load i64, ptr %19, align 8
  %21 = trunc i64 %20 to i32
  %22 = lshr i32 %21, 3
  %23 = and i32 %22, 8191
  %24 = add nuw i32 %.01824, 1
  %25 = add i32 %24, %23
  %26 = icmp ugt i32 %25, %1
  br i1 %26, label %27, label %29

27:                                               ; preds = %18
  %.not = icmp eq ptr %2, null
  br i1 %.not, label %.loopexit, label %28

28:                                               ; preds = %27
  store i32 %.01725, ptr %2, align 4
  br label %.loopexit

29:                                               ; preds = %18
  %30 = add i32 %.01725, 1
  %31 = icmp ult i32 %25, %8
  br i1 %31, label %12, label %.loopexit, !llvm.loop !28

.loopexit:                                        ; preds = %12, %29, %5, %27, %28, %3
  %.0 = phi i32 [ -1, %3 ], [ %.01824, %28 ], [ %.01824, %27 ], [ -1, %5 ], [ -1, %29 ], [ -1, %12 ]
  ret i32 %.0
}